; Function Attrs: nounwind uwtable
define ptr @ossl_tdes_newctx(ptr noundef %0, i32 noundef %1, i64 noundef %2, i64 noundef %3, i64 noundef %4, i64 noundef %5, ptr noundef %6) local_unnamed_addr #0 {
  %8 = tail call i32 @ossl_prov_is_running() #4
  %.not = icmp eq i32 %8, 0
  br i1 %.not, label %12, label %9

9:                                                ; preds = %7
  %10 = tail call noalias ptr @CRYPTO_zalloc(i64 noundef 584, ptr noundef nonnull @.str, i32 noundef 31) #4
  %.not11 = icmp eq ptr %10, null
  br i1 %.not11, label %12, label %11

11:                                               ; preds = %9
  tail call void @ossl_cipher_generic_initkey(ptr noundef nonnull %10, i64 noundef %2, i64 noundef %3, i64 noundef %4, i32 noundef %1, i64 noundef %5, ptr noundef %6, ptr noundef %0) #4
  br label %12

12:                                               ; preds = %9, %11, %7
  %.0 = phi ptr [ null, %7 ], [ %10, %11 ], [ null, %9 ]
  ret ptr %.0
}